target datalayout = "e-m:e-p270:32:32-p271:32:32-p272:64:64-i64:64-i128:128-f80:128-n8:16:32:64-S128"
target triple = "x86_64-pc-linux-gnu"

%struct.If_DsdMan_t_ = type { ptr, i32, i32, i32, i32, ptr, ptr, %struct.Vec_Ptr_t_, %struct.Vec_Int_t_, %struct.Vec_Int_t_, ptr, ptr, ptr, [16 x ptr], [16 x ptr], [16 x ptr], [16 x ptr], i32, i32, ptr, ptr, ptr, ptr, ptr, i32, i32, i32, i32, i64, i64, i64, i64, i64 }
%struct.Vec_Ptr_t_ = type { i32, i32, ptr }
%struct.Vec_Int_t_ = type { i32, i32, ptr }
%struct.If_DsdObj_t_ = type { i32, i32, [0 x i32] }

; Function Attrs: inlinehint nounwind uwtable
define internal ptr @Vec_PtrEntry(ptr noundef %0, i32 noundef %1) #1 {
  %3 = alloca ptr, align 8
  %4 = alloca i32, align 4
  store ptr %0, ptr %3, align 8, !tbaa !22
  store i32 %1, ptr %4, align 4, !tbaa !27
  %5 = load ptr, ptr %3, align 8, !tbaa !22
  %6 = getelementptr inbounds nuw %struct.Vec_Ptr_t_, ptr %5, i32 0, i32 2
  %7 = load ptr, ptr %6, align 8, !tbaa !46
  %8 = load i32, ptr %4, align 4, !tbaa !27
  %9 = sext i32 %8 to i64
  %10 = getelementptr inbounds ptr, ptr %7, i64 %9
  %11 = load ptr, ptr %10, align 8, !tbaa !44
  ret ptr %11
}

; Function Attrs: inlinehint nounwind uwtable
define internal void @Abc_TtCopy(ptr noundef %0, ptr noundef %1, i32 noundef %2, i32 noundef %3) #1 {
  %5 = alloca ptr, align 8
  %6 = alloca ptr, align 8
  %7 = alloca i32, align 4
  %8 = alloca i32, align 4
  %9 = alloca i32, align 4
  store ptr %0, ptr %5, align 8, !tbaa !76
  store ptr %1, ptr %6, align 8, !tbaa !76
  store i32 %2, ptr %7, align 4, !tbaa !27
  store i32 %3, ptr %8, align 4, !tbaa !27
  call void @llvm.lifetime.start.p0(i64 4, ptr %9) #15
  %10 = load i32, ptr %8, align 4, !tbaa !27
  %11 = icmp ne i32 %10, 0
  br i1 %11, label %12, label %32

12:                                               ; preds = %4
  store i32 0, ptr %9, align 4, !tbaa !27
  br label %13

13:                                               ; preds = %28, %12
  %14 = load i32, ptr %9, align 4, !tbaa !27
  %15 = load i32, ptr %7, align 4, !tbaa !27
  %16 = icmp slt i32 %14, %15
  br i1 %16, label %17, label %31

17:                                               ; preds = %13
  %18 = load ptr, ptr %6, align 8, !tbaa !76
  %19 = load i32, ptr %9, align 4, !tbaa !27
  %20 = sext i32 %19 to i64
  %21 = getelementptr inbounds i64, ptr %18, i64 %20
  %22 = load i64, ptr %21, align 8, !tbaa !116
  %23 = xor i64 %22, -1
  %24 = load ptr, ptr %5, align 8, !tbaa !76
  %25 = load i32, ptr %9, align 4, !tbaa !27
  %26 = sext i32 %25 to i64
  %27 = getelementptr inbounds i64, ptr %24, i64 %26
  store i64 %23, ptr %27, align 8, !tbaa !116
  br label %28

28:                                               ; preds = %17
  %29 = load i32, ptr %9, align 4, !tbaa !27
  %30 = add nsw i32 %29, 1
  store i32 %30, ptr %9, align 4, !tbaa !27
  br label %13, !llvm.loop !195

31:                                               ; preds = %13
  br label %51

32:                                               ; preds = %4
  store i32 0, ptr %9, align 4, !tbaa !27
  br label %33

33:                                               ; preds = %47, %32
  %34 = load i32, ptr %9, align 4, !tbaa !27
  %35 = load i32, ptr %7, align 4, !tbaa !27
  %36 = icmp slt i32 %34, %35
  br i1 %36, label %37, label %50

37:                                               ; preds = %33
  %38 = load ptr, ptr %6, align 8, !tbaa !76
  %39 = load i32, ptr %9, align 4, !tbaa !27
  %40 = sext i32 %39 to i64
  %41 = getelementptr inbounds i64, ptr %38, i64 %40
  %42 = load i64, ptr %41, align 8, !tbaa !116
  %43 = load ptr, ptr %5, align 8, !tbaa !76
  %44 = load i32, ptr %9, align 4, !tbaa !27
  %45 = sext i32 %44 to i64
  %46 = getelementptr inbounds i64, ptr %43, i64 %45
  store i64 %42, ptr %46, align 8, !tbaa !116
  br label %47

47:                                               ; preds = %37
  %48 = load i32, ptr %9, align 4, !tbaa !27
  %49 = add nsw i32 %48, 1
  store i32 %49, ptr %9, align 4, !tbaa !27
  br label %33, !llvm.loop !196

50:                                               ; preds = %33
  br label %51

51:                                               ; preds = %50, %31
  call void @llvm.lifetime.end.p0(i64 4, ptr %9) #15
  ret void
}

; Function Attrs: inlinehint nounwind uwtable
define internal i32 @Abc_LitIsCompl(i32 noundef %0) #1 {
  %2 = alloca i32, align 4
  store i32 %0, ptr %2, align 4, !tbaa !27
  %3 = load i32, ptr %2, align 4, !tbaa !27
  %4 = and i32 %3, 1
  ret i32 %4
}

; Function Attrs: inlinehint nounwind uwtable
define internal i32 @Abc_Var2Lit(i32 noundef %0, i32 noundef %1) #1 {
  %3 = alloca i32, align 4
  %4 = alloca i32, align 4
  store i32 %0, ptr %3, align 4, !tbaa !27
  store i32 %1, ptr %4, align 4, !tbaa !27
  %5 = load i32, ptr %3, align 4, !tbaa !27
  %6 = load i32, ptr %3, align 4, !tbaa !27
  %7 = add nsw i32 %5, %6
  %8 = load i32, ptr %4, align 4, !tbaa !27
  %9 = add nsw i32 %7, %8
  ret i32 %9
}

; Function Attrs: inlinehint nounwind uwtable
define internal void @Abc_TtConst1(ptr noundef %0, i32 noundef %1) #1 {
  %3 = alloca ptr, align 8
  %4 = alloca i32, align 4
  %5 = alloca i32, align 4
  store ptr %0, ptr %3, align 8, !tbaa !76
  store i32 %1, ptr %4, align 4, !tbaa !27
  call void @llvm.lifetime.start.p0(i64 4, ptr %5) #15
  store i32 0, ptr %5, align 4, !tbaa !27
  br label %6

6:                                                ; preds = %15, %2
  %7 = load i32, ptr %5, align 4, !tbaa !27
  %8 = load i32, ptr %4, align 4, !tbaa !27
  %9 = icmp slt i32 %7, %8
  br i1 %9, label %10, label %18

10:                                               ; preds = %6
  %11 = load ptr, ptr %3, align 8, !tbaa !76
  %12 = load i32, ptr %5, align 4, !tbaa !27
  %13 = sext i32 %12 to i64
  %14 = getelementptr inbounds i64, ptr %11, i64 %13
  store i64 -1, ptr %14, align 8, !tbaa !116
  br label %15

15:                                               ; preds = %10
  %16 = load i32, ptr %5, align 4, !tbaa !27
  %17 = add nsw i32 %16, 1
  store i32 %17, ptr %5, align 4, !tbaa !27
  br label %6, !llvm.loop !197

18:                                               ; preds = %6
  call void @llvm.lifetime.end.p0(i64 4, ptr %5) #15
  ret void
}

; Function Attrs: inlinehint nounwind uwtable
define internal void @Abc_TtConst0(ptr noundef %0, i32 noundef %1) #1 {
  %3 = alloca ptr, align 8
  %4 = alloca i32, align 4
  %5 = alloca i32, align 4
  store ptr %0, ptr %3, align 8, !tbaa !76
  store i32 %1, ptr %4, align 4, !tbaa !27
  call void @llvm.lifetime.start.p0(i64 4, ptr %5) #15
  store i32 0, ptr %5, align 4, !tbaa !27
  br label %6

6:                                                ; preds = %15, %2
  %7 = load i32, ptr %5, align 4, !tbaa !27
  %8 = load i32, ptr %4, align 4, !tbaa !27
  %9 = icmp slt i32 %7, %8
  br i1 %9, label %10, label %18

10:                                               ; preds = %6
  %11 = load ptr, ptr %3, align 8, !tbaa !76
  %12 = load i32, ptr %5, align 4, !tbaa !27
  %13 = sext i32 %12 to i64
  %14 = getelementptr inbounds i64, ptr %11, i64 %13
  store i64 0, ptr %14, align 8, !tbaa !116
  br label %15

15:                                               ; preds = %10
  %16 = load i32, ptr %5, align 4, !tbaa !27
  %17 = add nsw i32 %16, 1
  store i32 %17, ptr %5, align 4, !tbaa !27
  br label %6, !llvm.loop !198

18:                                               ; preds = %6
  call void @llvm.lifetime.end.p0(i64 4, ptr %5) #15
  ret void
}

; Function Attrs: inlinehint nounwind uwtable
define internal ptr @If_DsdVecObj(ptr noundef %0, i32 noundef %1) #1 {
  %3 = alloca ptr, align 8
  %4 = alloca i32, align 4
  store ptr %0, ptr %3, align 8, !tbaa !22
  store i32 %1, ptr %4, align 4, !tbaa !27
  %5 = load ptr, ptr %3, align 8, !tbaa !22
  %6 = load i32, ptr %4, align 4, !tbaa !27
  %7 = call ptr @Vec_PtrEntry(ptr noundef %5, i32 noundef %6)
  ret ptr %7
}

; Function Attrs: inlinehint nounwind uwtable
define internal i32 @Abc_Lit2Var(i32 noundef %0) #1 {
  %2 = alloca i32, align 4
  store i32 %0, ptr %2, align 4, !tbaa !27
  %3 = load i32, ptr %2, align 4, !tbaa !27
  %4 = ashr i32 %3, 1
  ret i32 %4
}

; Function Attrs: nounwind uwtable
define void @If_DsdManComputeTruthPtr(ptr noundef %0, i32 noundef %1, ptr noundef %2, ptr noundef %3) #0 {
  %5 = alloca ptr, align 8
  %6 = alloca i32, align 4
  %7 = alloca ptr, align 8
  %8 = alloca ptr, align 8
  %9 = alloca i32, align 4
  %10 = alloca ptr, align 8
  %11 = alloca i32, align 4
  store ptr %0, ptr %5, align 8, !tbaa !3
  store i32 %1, ptr %6, align 4, !tbaa !27
  store ptr %2, ptr %7, align 8, !tbaa !64
  store ptr %3, ptr %8, align 8, !tbaa !76
  call void @llvm.lifetime.start.p0(i64 4, ptr %9) #15
  store i32 0, ptr %9, align 4, !tbaa !27
  call void @llvm.lifetime.start.p0(i64 8, ptr %10) #15
  %12 = load ptr, ptr %5, align 8, !tbaa !3
  %13 = getelementptr inbounds nuw %struct.If_DsdMan_t_, ptr %12, i32 0, i32 7
  %14 = load i32, ptr %6, align 4, !tbaa !27
  %15 = call i32 @Abc_Lit2Var(i32 noundef %14)
  %16 = call ptr @If_DsdVecObj(ptr noundef %13, i32 noundef %15)
  store ptr %16, ptr %10, align 8, !tbaa !40
  %17 = load i32, ptr %6, align 4, !tbaa !27
  %18 = icmp eq i32 %17, 0
  br i1 %18, label %19, label %24

19:                                               ; preds = %4
  %20 = load ptr, ptr %8, align 8, !tbaa !76
  %21 = load ptr, ptr %5, align 8, !tbaa !3
  %22 = getelementptr inbounds nuw %struct.If_DsdMan_t_, ptr %21, i32 0, i32 3
  %23 = load i32, ptr %22, align 8, !tbaa !51
  call void @Abc_TtConst0(ptr noundef %20, i32 noundef %23)
  br label %79

24:                                               ; preds = %4
  %25 = load i32, ptr %6, align 4, !tbaa !27
  %26 = icmp eq i32 %25, 1
  br i1 %26, label %27, label %32

27:                                               ; preds = %24
  %28 = load ptr, ptr %8, align 8, !tbaa !76
  %29 = load ptr, ptr %5, align 8, !tbaa !3
  %30 = getelementptr inbounds nuw %struct.If_DsdMan_t_, ptr %29, i32 0, i32 3
  %31 = load i32, ptr %30, align 8, !tbaa !51
  call void @Abc_TtConst1(ptr noundef %28, i32 noundef %31)
  br label %78

32:                                               ; preds = %24
  %33 = load ptr, ptr %10, align 8, !tbaa !40
  %34 = getelementptr inbounds nuw %struct.If_DsdObj_t_, ptr %33, i32 0, i32 1
  %35 = load i32, ptr %34, align 4
  %36 = and i32 %35, 7
  %37 = icmp eq i32 %36, 2
  br i1 %37, label %38, label %72

38:                                               ; preds = %32
  call void @llvm.lifetime.start.p0(i64 4, ptr %11) #15
  %39 = load ptr, ptr %7, align 8, !tbaa !64
  %40 = icmp ne ptr %39, null
  br i1 %40, label %41, label %48

41:                                               ; preds = %38
  %42 = load ptr, ptr %7, align 8, !tbaa !64
  %43 = load i32, ptr %9, align 4, !tbaa !27
  %44 = sext i32 %43 to i64
  %45 = getelementptr inbounds i8, ptr %42, i64 %44
  %46 = load i8, ptr %45, align 1, !tbaa !124
  %47 = zext i8 %46 to i32
  br label %51

48:                                               ; preds = %38
  %49 = load i32, ptr %9, align 4, !tbaa !27
  %50 = call i32 @Abc_Var2Lit(i32 noundef %49, i32 noundef 0)
  br label %51

51:                                               ; preds = %48, %41
  %52 = phi i32 [ %47, %41 ], [ %50, %48 ]
  store i32 %52, ptr %11, align 4, !tbaa !27
  %53 = load i32, ptr %9, align 4, !tbaa !27
  %54 = add nsw i32 %53, 1
  store i32 %54, ptr %9, align 4, !tbaa !27
  %55 = load ptr, ptr %8, align 8, !tbaa !76
  %56 = load ptr, ptr %5, align 8, !tbaa !3
  %57 = getelementptr inbounds nuw %struct.If_DsdMan_t_, ptr %56, i32 0, i32 12
  %58 = load ptr, ptr %57, align 8, !tbaa !56
  %59 = load i32, ptr %11, align 4, !tbaa !27
  %60 = call i32 @Abc_Lit2Var(i32 noundef %59)
  %61 = sext i32 %60 to i64
  %62 = getelementptr inbounds ptr, ptr %58, i64 %61
  %63 = load ptr, ptr %62, align 8, !tbaa !76
  %64 = load ptr, ptr %5, align 8, !tbaa !3
  %65 = getelementptr inbounds nuw %struct.If_DsdMan_t_, ptr %64, i32 0, i32 3
  %66 = load i32, ptr %65, align 8, !tbaa !51
  %67 = load i32, ptr %6, align 4, !tbaa !27
  %68 = call i32 @Abc_LitIsCompl(i32 noundef %67)
  %69 = load i32, ptr %11, align 4, !tbaa !27
  %70 = call i32 @Abc_LitIsCompl(i32 noundef %69)
  %71 = xor i32 %68, %70
  call void @Abc_TtCopy(ptr noundef %55, ptr noundef %63, i32 noundef %66, i32 noundef %71)
  call void @llvm.lifetime.end.p0(i64 4, ptr %11) #15
  br label %77

72:                                               ; preds = %32
  %73 = load ptr, ptr %5, align 8, !tbaa !3
  %74 = load i32, ptr %6, align 4, !tbaa !27
  %75 = load ptr, ptr %8, align 8, !tbaa !76
  %76 = load ptr, ptr %7, align 8, !tbaa !64
  call void @If_DsdManComputeTruth_rec(ptr noundef %73, i32 noundef %74, ptr noundef %75, ptr noundef %76, ptr noundef %9)
  br label %77

77:                                               ; preds = %72, %51
  br label %78

78:                                               ; preds = %77, %27
  br label %79

79:                                               ; preds = %78, %19
  call void @llvm.lifetime.end.p0(i64 8, ptr %10) #15
  call void @llvm.lifetime.end.p0(i64 4, ptr %9) #15
  ret void
}