; Function Attrs: nounwind uwtable
define void @If_DsdManComputeTruthPtr(ptr noundef %0, i32 noundef %1, ptr noundef %2, ptr noundef %3) local_unnamed_addr #4 {
  %5 = alloca i32, align 4
  call void @llvm.lifetime.start.p0(i64 4, ptr nonnull %5) #39
  store i32 0, ptr %5, align 4, !tbaa !40
  switch i32 %1, label %18 [
    i32 0, label %6
    i32 1, label %12
  ]

6:                                                ; preds = %4
  %7 = getelementptr inbounds nuw i8, ptr %0, i64 16
  %8 = load i32, ptr %7, align 8, !tbaa !41
  %9 = icmp sgt i32 %8, 0
  br i1 %9, label %.lr.ph.preheader.i, label %Abc_TtConst0.exit

.lr.ph.preheader.i:                               ; preds = %6
  %10 = zext nneg i32 %8 to i64
  %11 = shl nuw nsw i64 %10, 3
  tail call void @llvm.memset.p0.i64(ptr align 8 %3, i8 0, i64 %11, i1 false), !tbaa !51
  br label %Abc_TtConst0.exit

12:                                               ; preds = %4
  %13 = getelementptr inbounds nuw i8, ptr %0, i64 16
  %14 = load i32, ptr %13, align 8, !tbaa !41
  %15 = icmp sgt i32 %14, 0
  br i1 %15, label %.lr.ph.preheader.i21, label %Abc_TtConst0.exit

.lr.ph.preheader.i21:                             ; preds = %12
  %16 = zext nneg i32 %14 to i64
  %17 = shl nuw nsw i64 %16, 3
  tail call void @llvm.memset.p0.i64(ptr align 8 %3, i8 -1, i64 %17, i1 false), !tbaa !51
  br label %Abc_TtConst0.exit

18:                                               ; preds = %4
  %19 = getelementptr i8, ptr %0, i64 48
  %.val = load ptr, ptr %19, align 8, !tbaa !23
  %20 = ashr i32 %1, 1
  %21 = sext i32 %20 to i64
  %22 = getelementptr inbounds ptr, ptr %.val, i64 %21
  %23 = load ptr, ptr %22, align 8, !tbaa !24
  %24 = getelementptr inbounds nuw i8, ptr %23, i64 4
  %25 = load i32, ptr %24, align 4
  %26 = and i32 %25, 7
  %27 = icmp eq i32 %26, 2
  br i1 %27, label %28, label %52

28:                                               ; preds = %18
  %.not = icmp eq ptr %2, null
  br i1 %.not, label %32, label %29

29:                                               ; preds = %28
  %30 = load i8, ptr %2, align 1, !tbaa !137
  %31 = zext i8 %30 to i32
  br label %32

32:                                               ; preds = %28, %29
  %33 = phi i32 [ %31, %29 ], [ 0, %28 ]
  %34 = getelementptr inbounds nuw i8, ptr %0, i64 104
  %35 = load ptr, ptr %34, align 8, !tbaa !55
  %36 = lshr i32 %33, 1
  %37 = zext nneg i32 %36 to i64
  %38 = getelementptr inbounds nuw ptr, ptr %35, i64 %37
  %39 = load ptr, ptr %38, align 8, !tbaa !49
  %40 = getelementptr inbounds nuw i8, ptr %0, i64 16
  %41 = load i32, ptr %40, align 8, !tbaa !41
  %42 = xor i32 %33, %1
  %43 = and i32 %42, 1
  %.not.i = icmp eq i32 %43, 0
  %44 = icmp sgt i32 %41, 0
  br i1 %.not.i, label %.preheader.i, label %.preheader14.i

.preheader14.i:                                   ; preds = %32
  br i1 %44, label %.lr.ph.preheader.i22, label %Abc_TtConst0.exit

.lr.ph.preheader.i22:                             ; preds = %.preheader14.i
  %wide.trip.count.i = zext nneg i32 %41 to i64
  br label %.lr.ph.i

.preheader.i:                                     ; preds = %32
  br i1 %44, label %.lr.ph18.preheader.i, label %Abc_TtConst0.exit

.lr.ph18.preheader.i:                             ; preds = %.preheader.i
  %wide.trip.count24.i = zext nneg i32 %41 to i64
  br label %.lr.ph18.i

.lr.ph.i:                                         ; preds = %.lr.ph.i, %.lr.ph.preheader.i22
  %indvars.iv.i = phi i64 [ 0, %.lr.ph.preheader.i22 ], [ %indvars.iv.next.i, %.lr.ph.i ]
  %45 = getelementptr inbounds nuw i64, ptr %39, i64 %indvars.iv.i
  %46 = load i64, ptr %45, align 8, !tbaa !51
  %47 = xor i64 %46, -1
  %48 = getelementptr inbounds nuw i64, ptr %3, i64 %indvars.iv.i
  store i64 %47, ptr %48, align 8, !tbaa !51
  %indvars.iv.next.i = add nuw nsw i64 %indvars.iv.i, 1
  %exitcond.not.i = icmp eq i64 %indvars.iv.next.i, %wide.trip.count.i
  br i1 %exitcond.not.i, label %Abc_TtConst0.exit, label %.lr.ph.i, !llvm.loop !163

.lr.ph18.i:                                       ; preds = %.lr.ph18.i, %.lr.ph18.preheader.i
  %indvars.iv21.i = phi i64 [ 0, %.lr.ph18.preheader.i ], [ %indvars.iv.next22.i, %.lr.ph18.i ]
  %49 = getelementptr inbounds nuw i64, ptr %39, i64 %indvars.iv21.i
  %50 = load i64, ptr %49, align 8, !tbaa !51
  %51 = getelementptr inbounds nuw i64, ptr %3, i64 %indvars.iv21.i
  store i64 %50, ptr %51, align 8, !tbaa !51
  %indvars.iv.next22.i = add nuw nsw i64 %indvars.iv21.i, 1
  %exitcond25.not.i = icmp eq i64 %indvars.iv.next22.i, %wide.trip.count24.i
  br i1 %exitcond25.not.i, label %Abc_TtConst0.exit, label %.lr.ph18.i, !llvm.loop !134

52:                                               ; preds = %18
  call void @If_DsdManComputeTruth_rec(ptr noundef nonnull %0, i32 noundef %1, ptr noundef %3, ptr noundef %2, ptr noundef nonnull %5)
  br label %Abc_TtConst0.exit

Abc_TtConst0.exit:                                ; preds = %.lr.ph.i, %.lr.ph18.i, %.preheader.i, %.preheader14.i, %.lr.ph.preheader.i21, %12, %.lr.ph.preheader.i, %6, %52
  call void @llvm.lifetime.end.p0(i64 4, ptr nonnull %5) #39
  ret void
}